(lp0
S'poi'
p1
aS'to_messages'
p2
aS'from_poi_to_this_person'
p3
aS'from_messages'
p4
aS'from_this_person_to_poi'
p5
aS'shared_receipt_with_poi'
p6
aS'salary'
p7
aS'total_payments'
p8
aS'bonus'
p9
aS'deferred_income'
p10
aS'total_stock_value'
p11
aS'expenses'
p12
aS'exercised_stock_options'
p13
aS'long_term_incentive'
p14
aS'restricted_stock'
p15
aS'fraction_from_poi'
p16
aS'fraction_to_poi'
p17
a.